; ModuleID = 'source-C-CXX/42/1295.c'
source_filename = "source-C-CXX/42/1295.c"
target datalayout = "e-m:e-p270:32:32-p271:32:32-p272:64:64-i64:64-f80:128-n8:16:32:64-S128"
target triple = "x86_64-pc-linux-gnu"

@.str = private unnamed_addr constant [3 x i8] c"%d\00", align 1
@.str.1 = private unnamed_addr constant [7 x i8] c"%d %d\0A\00", align 1

; Function Attrs: nofree nounwind sspstrong uwtable
define dso_local i32 @main() local_unnamed_addr #0 {
  %1 = alloca i32, align 4
  %2 = bitcast i32* %1 to i8*
  call void @llvm.lifetime.start.p0i8(i64 4, i8* nonnull %2) #3
  %3 = call i32 (i8*, ...) @__isoc99_scanf(i8* getelementptr inbounds ([3 x i8], [3 x i8]* @.str, i64 0, i64 0), i32* nonnull %1)
  %4 = load i32, i32* %1, align 4, !tbaa !5
  %5 = icmp slt i32 %4, 6
  br i1 %5, label %42, label %6

6:                                                ; preds = %0, %36
  %7 = phi i32 [ %37, %36 ], [ %4, %0 ]
  %8 = phi i32 [ %41, %36 ], [ 5, %0 ]
  %9 = phi i32 [ %38, %36 ], [ 3, %0 ]
  br label %10

10:                                               ; preds = %6, %14
  %11 = phi i32 [ %15, %14 ], [ 3, %6 ]
  %12 = urem i32 %9, %11
  %13 = icmp eq i32 %12, 0
  br i1 %13, label %17, label %14

14:                                               ; preds = %10
  %15 = add nuw nsw i32 %11, 2
  %16 = icmp ugt i32 %15, %9
  br i1 %16, label %17, label %10, !llvm.loop !9

17:                                               ; preds = %14, %10
  %18 = phi i32 [ %8, %14 ], [ %11, %10 ]
  %19 = icmp ult i32 %18, %9
  br i1 %19, label %36, label %20

20:                                               ; preds = %17
  %21 = sub nsw i32 %7, %9
  %22 = icmp slt i32 %21, 3
  br i1 %22, label %30, label %23

23:                                               ; preds = %20, %27
  %24 = phi i32 [ %28, %27 ], [ 3, %20 ]
  %25 = srem i32 %21, %24
  %26 = icmp eq i32 %25, 0
  br i1 %26, label %30, label %27

27:                                               ; preds = %23
  %28 = add nuw nsw i32 %24, 2
  %29 = icmp sgt i32 %28, %21
  br i1 %29, label %30, label %23, !llvm.loop !11

30:                                               ; preds = %27, %23, %20
  %31 = phi i32 [ 3, %20 ], [ %24, %23 ], [ %28, %27 ]
  %32 = icmp eq i32 %31, %21
  br i1 %32, label %33, label %36

33:                                               ; preds = %30
  %34 = call i32 (i8*, ...) @printf(i8* nonnull dereferenceable(1) getelementptr inbounds ([7 x i8], [7 x i8]* @.str.1, i64 0, i64 0), i32 %9, i32 %21)
  %35 = load i32, i32* %1, align 4, !tbaa !5
  br label %36

36:                                               ; preds = %33, %30, %17
  %37 = phi i32 [ %35, %33 ], [ %7, %30 ], [ %7, %17 ]
  %38 = add nuw nsw i32 %9, 2
  %39 = sdiv i32 %37, 2
  %40 = icmp sgt i32 %38, %39
  %41 = add nuw nsw i32 %8, 2
  br i1 %40, label %42, label %6, !llvm.loop !12

42:                                               ; preds = %36, %0
  call void @llvm.lifetime.end.p0i8(i64 4, i8* nonnull %2) #3
  ret i32 0
}

; Function Attrs: argmemonly mustprogress nofree nosync nounwind willreturn
declare void @llvm.lifetime.start.p0i8(i64 immarg, i8* nocapture) #1

; Function Attrs: nofree nounwind
declare noundef i32 @__isoc99_scanf(i8* nocapture noundef readonly, ...) local_unnamed_addr #2

; Function Attrs: nofree nounwind
declare noundef i32 @printf(i8* nocapture noundef readonly, ...) local_unnamed_addr #2

; Function Attrs: argmemonly mustprogress nofree nosync nounwind willreturn
declare void @llvm.lifetime.end.p0i8(i64 immarg, i8* nocapture) #1


!llvm.module.flags = !{!0, !1, !2, !3}
!llvm.ident = !{!4}

!0 = !{i32 1, !"wchar_size", i32 4}
!1 = !{i32 7, !"PIC Level", i32 2}
!2 = !{i32 7, !"PIE Level", i32 2}
!3 = !{i32 7, !"uwtable", i32 1}
!4 = !{!"clang version 13.0.0"}
!5 = !{!6, !6, i64 0}
!6 = !{!"int", !7, i64 0}
!7 = !{!"omnipotent char", !8, i64 0}
!8 = !{!"Simple C/C++ TBAA"}
!9 = distinct !{!9, !10}
!10 = !{!"llvm.loop.mustprogress"}
!11 = distinct !{!11, !10}
!12 = distinct !{!12, !10}
